target datalayout = "e-m:e-p270:32:32-p271:32:32-p272:64:64-i64:64-i128:128-f80:128-n8:16:32:64-S128"
target triple = "x86_64-unknown-linux-gnu"

; Function Attrs: mustprogress nounwind uwtable
define noundef zeroext i1 @_ZN8facebook5velox4util10isLeapYearEi(i32 noundef %year) #0 {
entry:
  %year.addr = alloca i32, align 4
  store i32 %year, ptr %year.addr, align 4
  %0 = load i32, ptr %year.addr, align 4
  %rem = srem i32 %0, 4
  %cmp = icmp eq i32 %rem, 0
  br i1 %cmp, label %land.rhs, label %land.end

land.rhs:                                         ; preds = %entry
  %1 = load i32, ptr %year.addr, align 4
  %rem1 = srem i32 %1, 100
  %cmp2 = icmp ne i32 %rem1, 0
  br i1 %cmp2, label %lor.end, label %lor.rhs

lor.rhs:                                          ; preds = %land.rhs
  %2 = load i32, ptr %year.addr, align 4
  %rem3 = srem i32 %2, 400
  %cmp4 = icmp eq i32 %rem3, 0
  br label %lor.end

lor.end:                                          ; preds = %lor.rhs, %land.rhs
  %3 = phi i1 [ true, %land.rhs ], [ %cmp4, %lor.rhs ]
  br label %land.end

land.end:                                         ; preds = %lor.end, %entry
  %4 = phi i1 [ false, %entry ], [ %3, %lor.end ]
  ret i1 %4
}