; Function Attrs: mustprogress nofree norecurse nosync nounwind willreturn memory(none) uwtable
define noundef zeroext i1 @_ZN8facebook5velox4util10isLeapYearEi(i32 noundef %year) local_unnamed_addr #0 {
entry:
  %0 = and i32 %year, 3
  %cmp = icmp eq i32 %0, 0
  br i1 %cmp, label %land.rhs, label %land.end

land.rhs:                                         ; preds = %entry
  %rem1 = srem i32 %year, 100
  %cmp2.not = icmp eq i32 %rem1, 0
  br i1 %cmp2.not, label %lor.rhs, label %land.end

lor.rhs:                                          ; preds = %land.rhs
  %rem3 = srem i32 %year, 400
  %cmp4 = icmp eq i32 %rem3, 0
  br label %land.end

land.end:                                         ; preds = %land.rhs, %lor.rhs, %entry
  %1 = phi i1 [ false, %entry ], [ true, %land.rhs ], [ %cmp4, %lor.rhs ]
  ret i1 %1
}